target datalayout = "e-m:e-p270:32:32-p271:32:32-p272:64:64-i64:64-i128:128-f80:128-n8:16:32:64-S128"
target triple = "x86_64-unknown-linux-gnu"

%struct.QIOChannelWebsock = type { %struct.QIOChannel, ptr, %struct.Buffer, %struct.Buffer, %struct.Buffer, i64, i64, %union.QIOChannelWebsockMask, i32, ptr, i32, i8 }
%struct.QIOChannel = type { %struct.Object, i32, ptr, ptr, ptr, ptr, ptr, i8 }
%struct.Object = type { ptr, ptr, ptr, i32, ptr }
%struct.Buffer = type { ptr, i64, i64, i64, ptr }
%union.QIOChannelWebsockMask = type { i32 }
%struct.timeval = type { i64, i64 }
%struct.iovec = type { ptr, i64 }
%union.anon = type { [14 x i8] }
%struct.QIOChannelWebsockHeader = type <{ i8, i8, %union.anon.0 }>
%union.anon.0 = type { %union.QIOChannelWebsockMask, [8 x i8] }
%struct.anon = type <{ i16, %union.QIOChannelWebsockMask }>
%struct.anon.1 = type <{ i64, %union.QIOChannelWebsockMask }>

@trace_events_enabled_count = external global i32, align 4
@message_with_timestamp = external global i8, align 1
@qemu_loglevel = external global i32, align 4
@.str.12 = private unnamed_addr constant [29 x i8] c"../qemu/io/channel-websock.c\00", align 1
@.str.67 = private unnamed_addr constant [28 x i8] c"size <= iov_size(iov, niov)\00", align 1
@__PRETTY_FUNCTION__.qio_channel_websock_encode = private unnamed_addr constant [100 x i8] c"void qio_channel_websock_encode(QIOChannelWebsock *, uint8_t, const struct iovec *, size_t, size_t)\00", align 1
@_TRACE_QIO_CHANNEL_WEBSOCK_ENCODE_DSTATE = external global i16, align 2
@.str.68 = private unnamed_addr constant [109 x i8] c"%d@%zu.%06zu:qio_channel_websock_encode Websocket encoded ioc=%p opcode=0x%x header-len=%zu payload-len=%zu\0A\00", align 1
@.str.69 = private unnamed_addr constant [96 x i8] c"qio_channel_websock_encode Websocket encoded ioc=%p opcode=0x%x header-len=%zu payload-len=%zu\0A\00", align 1

; Function Attrs: nounwind sspstrong uwtable
define internal zeroext i1 @qemu_loglevel_mask(i32 noundef %mask) #0 {
entry:
  %mask.addr = alloca i32, align 4
  store i32 %mask, ptr %mask.addr, align 4
  %0 = load i32, ptr @qemu_loglevel, align 4
  %1 = load i32, ptr %mask.addr, align 4
  %and = and i32 %0, %1
  %cmp = icmp ne i32 %and, 0
  ret i1 %cmp
}

; Function Attrs: nounwind sspstrong uwtable
define internal void @_nocheck__trace_qio_channel_websock_encode(ptr noundef %ioc, i8 noundef zeroext %opcode, i64 noundef %payloadlen, i64 noundef %headerlen) #0 {
entry:
  %ioc.addr = alloca ptr, align 8
  %opcode.addr = alloca i8, align 1
  %payloadlen.addr = alloca i64, align 8
  %headerlen.addr = alloca i64, align 8
  %_now = alloca %struct.timeval, align 8
  store ptr %ioc, ptr %ioc.addr, align 8
  store i8 %opcode, ptr %opcode.addr, align 1
  store i64 %payloadlen, ptr %payloadlen.addr, align 8
  store i64 %headerlen, ptr %headerlen.addr, align 8
  %0 = load i32, ptr @trace_events_enabled_count, align 4
  %tobool = icmp ne i32 %0, 0
  %lnot = xor i1 %tobool, true
  %lnot1 = xor i1 %lnot, true
  %lnot.ext = zext i1 %lnot1 to i32
  %conv = sext i32 %lnot.ext to i64
  %tobool2 = icmp ne i64 %conv, 0
  br i1 %tobool2, label %land.lhs.true, label %if.end13

land.lhs.true:                                    ; preds = %entry
  %1 = load i16, ptr @_TRACE_QIO_CHANNEL_WEBSOCK_ENCODE_DSTATE, align 2
  %conv3 = zext i16 %1 to i32
  %tobool4 = icmp ne i32 %conv3, 0
  br i1 %tobool4, label %land.lhs.true5, label %if.end13

land.lhs.true5:                                   ; preds = %land.lhs.true
  %call = call zeroext i1 @qemu_loglevel_mask(i32 noundef 32768)
  br i1 %call, label %if.then, label %if.end13

if.then:                                          ; preds = %land.lhs.true5
  %2 = load i8, ptr @message_with_timestamp, align 1
  %tobool7 = trunc i8 %2 to i1
  br i1 %tobool7, label %if.then8, label %if.else

if.then8:                                         ; preds = %if.then
  %call9 = call i32 @gettimeofday(ptr noundef %_now, ptr noundef null) #10
  %call10 = call i32 @qemu_get_thread_id()
  %tv_sec = getelementptr inbounds %struct.timeval, ptr %_now, i32 0, i32 0
  %3 = load i64, ptr %tv_sec, align 8
  %tv_usec = getelementptr inbounds %struct.timeval, ptr %_now, i32 0, i32 1
  %4 = load i64, ptr %tv_usec, align 8
  %5 = load ptr, ptr %ioc.addr, align 8
  %6 = load i8, ptr %opcode.addr, align 1
  %conv11 = zext i8 %6 to i32
  %7 = load i64, ptr %payloadlen.addr, align 8
  %8 = load i64, ptr %headerlen.addr, align 8
  call void (ptr, ...) @qemu_log(ptr noundef @.str.68, i32 noundef %call10, i64 noundef %3, i64 noundef %4, ptr noundef %5, i32 noundef %conv11, i64 noundef %7, i64 noundef %8)
  br label %if.end

if.else:                                          ; preds = %if.then
  %9 = load ptr, ptr %ioc.addr, align 8
  %10 = load i8, ptr %opcode.addr, align 1
  %conv12 = zext i8 %10 to i32
  %11 = load i64, ptr %payloadlen.addr, align 8
  %12 = load i64, ptr %headerlen.addr, align 8
  call void (ptr, ...) @qemu_log(ptr noundef @.str.69, ptr noundef %9, i32 noundef %conv12, i64 noundef %11, i64 noundef %12)
  br label %if.end

if.end:                                           ; preds = %if.else, %if.then8
  br label %if.end13

if.end13:                                         ; preds = %if.end, %land.lhs.true5, %land.lhs.true, %entry
  ret void
}

; Function Attrs: nounwind sspstrong uwtable
define internal void @trace_qio_channel_websock_encode(ptr noundef %ioc, i8 noundef zeroext %opcode, i64 noundef %payloadlen, i64 noundef %headerlen) #0 {
entry:
  %ioc.addr = alloca ptr, align 8
  %opcode.addr = alloca i8, align 1
  %payloadlen.addr = alloca i64, align 8
  %headerlen.addr = alloca i64, align 8
  store ptr %ioc, ptr %ioc.addr, align 8
  store i8 %opcode, ptr %opcode.addr, align 1
  store i64 %payloadlen, ptr %payloadlen.addr, align 8
  store i64 %headerlen, ptr %headerlen.addr, align 8
  %0 = load ptr, ptr %ioc.addr, align 8
  %1 = load i8, ptr %opcode.addr, align 1
  %2 = load i64, ptr %payloadlen.addr, align 8
  %3 = load i64, ptr %headerlen.addr, align 8
  call void @_nocheck__trace_qio_channel_websock_encode(ptr noundef %0, i8 noundef zeroext %1, i64 noundef %2, i64 noundef %3)
  ret void
}

; Function Attrs: nounwind sspstrong uwtable
define internal i64 @cpu_to_be64(i64 noundef %v) #0 {
entry:
  %v.addr = alloca i64, align 8
  store i64 %v, ptr %v.addr, align 8
  %0 = load i64, ptr %v.addr, align 8
  %1 = call i64 @llvm.bswap.i64(i64 %0)
  ret i64 %1
}

; Function Attrs: nounwind sspstrong uwtable
define internal zeroext i16 @cpu_to_be16(i16 noundef zeroext %v) #0 {
entry:
  %v.addr = alloca i16, align 2
  store i16 %v, ptr %v.addr, align 2
  %0 = load i16, ptr %v.addr, align 2
  %1 = call i16 @llvm.bswap.i16(i16 %0)
  ret i16 %1
}

; Function Attrs: nounwind sspstrong uwtable
define internal void @qio_channel_websock_encode(ptr noundef %ioc, i8 noundef zeroext %opcode, ptr noundef %iov, i64 noundef %niov, i64 noundef %size) #0 {
entry:
  %ioc.addr = alloca ptr, align 8
  %opcode.addr = alloca i8, align 1
  %iov.addr = alloca ptr, align 8
  %niov.addr = alloca i64, align 8
  %size.addr = alloca i64, align 8
  %header_size = alloca i64, align 8
  %i = alloca i64, align 8
  %header = alloca %union.anon, align 1
  %want = alloca i64, align 8
  store ptr %ioc, ptr %ioc.addr, align 8
  store i8 %opcode, ptr %opcode.addr, align 1
  store ptr %iov, ptr %iov.addr, align 8
  store i64 %niov, ptr %niov.addr, align 8
  store i64 %size, ptr %size.addr, align 8
  %0 = load i64, ptr %size.addr, align 8
  %1 = load ptr, ptr %iov.addr, align 8
  %2 = load i64, ptr %niov.addr, align 8
  %conv = trunc i64 %2 to i32
  %call = call i64 @iov_size(ptr noundef %1, i32 noundef %conv)
  %cmp = icmp ule i64 %0, %call
  br i1 %cmp, label %if.then, label %if.else

if.then:                                          ; preds = %entry
  br label %if.end

if.else:                                          ; preds = %entry
  call void @__assert_fail(ptr noundef @.str.67, ptr noundef @.str.12, i32 noundef 623, ptr noundef @__PRETTY_FUNCTION__.qio_channel_websock_encode) #13
  unreachable

if.end:                                           ; preds = %if.then
  %3 = load i8, ptr %opcode.addr, align 1
  %conv2 = zext i8 %3 to i32
  %and = and i32 %conv2, 15
  %or = or i32 128, %and
  %conv3 = trunc i32 %or to i8
  %b0 = getelementptr inbounds %struct.QIOChannelWebsockHeader, ptr %header, i32 0, i32 0
  store i8 %conv3, ptr %b0, align 1
  %4 = load i64, ptr %size.addr, align 8
  %cmp4 = icmp ult i64 %4, 126
  br i1 %cmp4, label %if.then6, label %if.else8

if.then6:                                         ; preds = %if.end
  %5 = load i64, ptr %size.addr, align 8
  %conv7 = trunc i64 %5 to i8
  %b1 = getelementptr inbounds %struct.QIOChannelWebsockHeader, ptr %header, i32 0, i32 1
  store i8 %conv7, ptr %b1, align 1
  store i64 6, ptr %header_size, align 8
  br label %if.end20

if.else8:                                         ; preds = %if.end
  %6 = load i64, ptr %size.addr, align 8
  %cmp9 = icmp ult i64 %6, 65536
  br i1 %cmp9, label %if.then11, label %if.else15

if.then11:                                        ; preds = %if.else8
  %b112 = getelementptr inbounds %struct.QIOChannelWebsockHeader, ptr %header, i32 0, i32 1
  store i8 126, ptr %b112, align 1
  %7 = load i64, ptr %size.addr, align 8
  %conv13 = trunc i64 %7 to i16
  %call14 = call zeroext i16 @cpu_to_be16(i16 noundef zeroext %conv13)
  %u = getelementptr inbounds %struct.QIOChannelWebsockHeader, ptr %header, i32 0, i32 2
  %l16 = getelementptr inbounds %struct.anon, ptr %u, i32 0, i32 0
  store i16 %call14, ptr %l16, align 1
  store i64 8, ptr %header_size, align 8
  br label %if.end19

if.else15:                                        ; preds = %if.else8
  %b116 = getelementptr inbounds %struct.QIOChannelWebsockHeader, ptr %header, i32 0, i32 1
  store i8 127, ptr %b116, align 1
  %8 = load i64, ptr %size.addr, align 8
  %call17 = call i64 @cpu_to_be64(i64 noundef %8)
  %u18 = getelementptr inbounds %struct.QIOChannelWebsockHeader, ptr %header, i32 0, i32 2
  %l64 = getelementptr inbounds %struct.anon.1, ptr %u18, i32 0, i32 0
  store i64 %call17, ptr %l64, align 1
  store i64 14, ptr %header_size, align 8
  br label %if.end19

if.end19:                                         ; preds = %if.else15, %if.then11
  br label %if.end20

if.end20:                                         ; preds = %if.end19, %if.then6
  %9 = load i64, ptr %header_size, align 8
  %sub = sub i64 %9, 4
  store i64 %sub, ptr %header_size, align 8
  %10 = load ptr, ptr %ioc.addr, align 8
  %11 = load i8, ptr %opcode.addr, align 1
  %12 = load i64, ptr %header_size, align 8
  %13 = load i64, ptr %size.addr, align 8
  call void @trace_qio_channel_websock_encode(ptr noundef %10, i8 noundef zeroext %11, i64 noundef %12, i64 noundef %13)
  %14 = load ptr, ptr %ioc.addr, align 8
  %encoutput = getelementptr inbounds %struct.QIOChannelWebsock, ptr %14, i32 0, i32 3
  %15 = load i64, ptr %header_size, align 8
  %16 = load i64, ptr %size.addr, align 8
  %add = add i64 %15, %16
  call void @buffer_reserve(ptr noundef %encoutput, i64 noundef %add)
  %17 = load ptr, ptr %ioc.addr, align 8
  %encoutput21 = getelementptr inbounds %struct.QIOChannelWebsock, ptr %17, i32 0, i32 3
  %arraydecay = getelementptr inbounds [14 x i8], ptr %header, i64 0, i64 0
  %18 = load i64, ptr %header_size, align 8
  call void @buffer_append(ptr noundef %encoutput21, ptr noundef %arraydecay, i64 noundef %18)
  store i64 0, ptr %i, align 8
  br label %for.cond

for.cond:                                         ; preds = %for.inc, %if.end20
  %19 = load i64, ptr %i, align 8
  %20 = load i64, ptr %niov.addr, align 8
  %cmp22 = icmp ult i64 %19, %20
  br i1 %cmp22, label %land.rhs, label %land.end

land.rhs:                                         ; preds = %for.cond
  %21 = load i64, ptr %size.addr, align 8
  %cmp24 = icmp ne i64 %21, 0
  br label %land.end

land.end:                                         ; preds = %land.rhs, %for.cond
  %22 = phi i1 [ false, %for.cond ], [ %cmp24, %land.rhs ]
  br i1 %22, label %for.body, label %for.end

for.body:                                         ; preds = %land.end
  %23 = load ptr, ptr %iov.addr, align 8
  %24 = load i64, ptr %i, align 8
  %arrayidx = getelementptr %struct.iovec, ptr %23, i64 %24
  %iov_len = getelementptr inbounds %struct.iovec, ptr %arrayidx, i32 0, i32 1
  %25 = load i64, ptr %iov_len, align 8
  store i64 %25, ptr %want, align 8
  %26 = load i64, ptr %want, align 8
  %27 = load i64, ptr %size.addr, align 8
  %cmp26 = icmp ugt i64 %26, %27
  br i1 %cmp26, label %if.then28, label %if.end29

if.then28:                                        ; preds = %for.body
  %28 = load i64, ptr %size.addr, align 8
  store i64 %28, ptr %want, align 8
  br label %if.end29

if.end29:                                         ; preds = %if.then28, %for.body
  %29 = load ptr, ptr %ioc.addr, align 8
  %encoutput30 = getelementptr inbounds %struct.QIOChannelWebsock, ptr %29, i32 0, i32 3
  %30 = load ptr, ptr %iov.addr, align 8
  %31 = load i64, ptr %i, align 8
  %arrayidx31 = getelementptr %struct.iovec, ptr %30, i64 %31
  %iov_base = getelementptr inbounds %struct.iovec, ptr %arrayidx31, i32 0, i32 0
  %32 = load ptr, ptr %iov_base, align 8
  %33 = load i64, ptr %want, align 8
  call void @buffer_append(ptr noundef %encoutput30, ptr noundef %32, i64 noundef %33)
  %34 = load i64, ptr %want, align 8
  %35 = load i64, ptr %size.addr, align 8
  %sub32 = sub i64 %35, %34
  store i64 %sub32, ptr %size.addr, align 8
  br label %for.inc

for.inc:                                          ; preds = %if.end29
  %36 = load i64, ptr %i, align 8
  %inc = add i64 %36, 1
  store i64 %inc, ptr %i, align 8
  br label %for.cond, !llvm.loop !12

for.end:                                          ; preds = %land.end
  ret void
}