; Function Attrs: nounwind sspstrong uwtable
define internal fastcc void @qio_channel_websock_encode(ptr noundef %ioc, i8 noundef zeroext range(i8 2, 11) %opcode, ptr noundef %iov, i64 noundef %niov, i64 noundef %size) unnamed_addr #0 {
entry:
  %_now.i.i = alloca %struct.timeval, align 8
  %header = alloca %union.anon, align 1
  %conv = trunc i64 %niov to i32
  %call = tail call i64 @iov_size(ptr noundef %iov, i32 noundef %conv) #15
  %cmp.not = icmp ugt i64 %size, %call
  br i1 %cmp.not, label %if.else, label %if.end

if.else:                                          ; preds = %entry
  tail call void @__assert_fail(ptr noundef nonnull @.str.67, ptr noundef nonnull @.str.12, i32 noundef 623, ptr noundef nonnull @__PRETTY_FUNCTION__.qio_channel_websock_encode) #18
  unreachable

if.end:                                           ; preds = %entry
  %0 = or disjoint i8 %opcode, -128
  store i8 %0, ptr %header, align 1
  %cmp4 = icmp ult i64 %size, 126
  %b1 = getelementptr inbounds nuw i8, ptr %header, i64 1
  br i1 %cmp4, label %if.then6, label %if.else8

if.then6:                                         ; preds = %if.end
  %conv7 = trunc nuw nsw i64 %size to i8
  store i8 %conv7, ptr %b1, align 1
  br label %if.end20

if.else8:                                         ; preds = %if.end
  %cmp9 = icmp ult i64 %size, 65536
  br i1 %cmp9, label %if.then11, label %if.else15

if.then11:                                        ; preds = %if.else8
  store i8 126, ptr %b1, align 1
  %conv13 = trunc nuw i64 %size to i16
  %1 = tail call noundef i16 @llvm.bswap.i16(i16 range(i16 126, 0) %conv13)
  %u = getelementptr inbounds nuw i8, ptr %header, i64 2
  store i16 %1, ptr %u, align 1
  br label %if.end20

if.else15:                                        ; preds = %if.else8
  store i8 127, ptr %b1, align 1
  %2 = tail call noundef i64 @llvm.bswap.i64(i64 range(i64 65536, 0) %size)
  %u18 = getelementptr inbounds nuw i8, ptr %header, i64 2
  store i64 %2, ptr %u18, align 1
  br label %if.end20

if.end20:                                         ; preds = %if.then11, %if.else15, %if.then6
  %header_size.0 = phi i64 [ 2, %if.then6 ], [ 4, %if.then11 ], [ 10, %if.else15 ]
  call void @llvm.lifetime.start.p0(i64 16, ptr nonnull %_now.i.i)
  %3 = load i32, ptr @trace_events_enabled_count, align 4
  %tobool.i.i = icmp ne i32 %3, 0
  %4 = load i16, ptr @_TRACE_QIO_CHANNEL_WEBSOCK_ENCODE_DSTATE, align 2
  %tobool4.i.i = icmp ne i16 %4, 0
  %or.cond.i.i = select i1 %tobool.i.i, i1 %tobool4.i.i, i1 false
  br i1 %or.cond.i.i, label %land.lhs.true5.i.i, label %trace_qio_channel_websock_encode.exit

land.lhs.true5.i.i:                               ; preds = %if.end20
  %5 = load i32, ptr @qemu_loglevel, align 4
  %and.i.i.i = and i32 %5, 32768
  %cmp.i.not.i.i = icmp eq i32 %and.i.i.i, 0
  br i1 %cmp.i.not.i.i, label %trace_qio_channel_websock_encode.exit, label %if.then.i.i

if.then.i.i:                                      ; preds = %land.lhs.true5.i.i
  %6 = load i8, ptr @message_with_timestamp, align 1
  %tobool7.i.i = trunc i8 %6 to i1
  br i1 %tobool7.i.i, label %if.then8.i.i, label %if.else.i.i

if.then8.i.i:                                     ; preds = %if.then.i.i
  %call9.i.i = call i32 @gettimeofday(ptr noundef nonnull %_now.i.i, ptr noundef null) #15
  %call10.i.i = tail call i32 @qemu_get_thread_id() #15
  %7 = load i64, ptr %_now.i.i, align 8
  %tv_usec.i.i = getelementptr inbounds nuw i8, ptr %_now.i.i, i64 8
  %8 = load i64, ptr %tv_usec.i.i, align 8
  %conv11.i.i = zext nneg i8 %opcode to i32
  tail call void (ptr, ...) @qemu_log(ptr noundef nonnull @.str.68, i32 noundef %call10.i.i, i64 noundef %7, i64 noundef %8, ptr noundef %ioc, i32 noundef %conv11.i.i, i64 noundef range(i64 2, 11) %header_size.0, i64 noundef %size) #15
  br label %trace_qio_channel_websock_encode.exit

if.else.i.i:                                      ; preds = %if.then.i.i
  %conv12.i.i = zext nneg i8 %opcode to i32
  tail call void (ptr, ...) @qemu_log(ptr noundef nonnull @.str.69, ptr noundef %ioc, i32 noundef %conv12.i.i, i64 noundef range(i64 2, 11) %header_size.0, i64 noundef %size) #15
  br label %trace_qio_channel_websock_encode.exit

trace_qio_channel_websock_encode.exit:            ; preds = %if.end20, %land.lhs.true5.i.i, %if.then8.i.i, %if.else.i.i
  call void @llvm.lifetime.end.p0(i64 16, ptr nonnull %_now.i.i)
  %encoutput = getelementptr inbounds nuw i8, ptr %ioc, i64 144
  %add = add i64 %header_size.0, %size
  tail call void @buffer_reserve(ptr noundef nonnull %encoutput, i64 noundef %add) #15
  call void @buffer_append(ptr noundef nonnull %encoutput, ptr noundef nonnull %header, i64 noundef %header_size.0) #15
  %cmp2227 = icmp ne i64 %niov, 0
  %cmp2428 = icmp ne i64 %size, 0
  %9 = and i1 %cmp2227, %cmp2428
  br i1 %9, label %for.body, label %for.end

for.body:                                         ; preds = %trace_qio_channel_websock_encode.exit, %for.body
  %i.030 = phi i64 [ %inc, %for.body ], [ 0, %trace_qio_channel_websock_encode.exit ]
  %size.addr.029 = phi i64 [ %sub32, %for.body ], [ %size, %trace_qio_channel_websock_encode.exit ]
  %arrayidx = getelementptr %struct.iovec, ptr %iov, i64 %i.030
  %iov_len = getelementptr inbounds nuw i8, ptr %arrayidx, i64 8
  %10 = load i64, ptr %iov_len, align 8
  %spec.select = call i64 @llvm.umin.i64(i64 %10, i64 %size.addr.029)
  %11 = load ptr, ptr %arrayidx, align 8
  call void @buffer_append(ptr noundef nonnull %encoutput, ptr noundef %11, i64 noundef %spec.select) #15
  %sub32 = sub i64 %size.addr.029, %spec.select
  %inc = add nuw i64 %i.030, 1
  %cmp22 = icmp ult i64 %inc, %niov
  %cmp24 = icmp ne i64 %sub32, 0
  %12 = and i1 %cmp22, %cmp24
  br i1 %12, label %for.body, label %for.end, !llvm.loop !12

for.end:                                          ; preds = %for.body, %trace_qio_channel_websock_encode.exit
  ret void
}